target datalayout = "e-m:e-p270:32:32-p271:32:32-p272:64:64-i64:64-i128:128-f80:128-n8:16:32:64-S128"
target triple = "x86_64-pc-linux-gnu"

%struct.AVRational = type { i32, i32 }

; Function Attrs: nounwind uwtable
define i64 @ff_av1_framerate(i64 noundef %0, i64 noundef %1, i64 noundef %2) #0 {
  %4 = alloca %struct.AVRational, align 4
  %5 = alloca i64, align 8
  %6 = alloca i64, align 8
  %7 = alloca i64, align 8
  %8 = alloca %struct.AVRational, align 4
  %9 = alloca i32, align 4
  store i64 %0, ptr %5, align 8, !tbaa !19
  store i64 %1, ptr %6, align 8, !tbaa !19
  store i64 %2, ptr %7, align 8, !tbaa !19
  call void @llvm.lifetime.start.p0(i64 8, ptr %8) #9
  %10 = load i64, ptr %5, align 8, !tbaa !19
  %11 = icmp ne i64 %10, 0
  br i1 %11, label %12, label %33

12:                                               ; preds = %3
  %13 = load i64, ptr %6, align 8, !tbaa !19
  %14 = icmp ne i64 %13, 0
  br i1 %14, label %15, label %33

15:                                               ; preds = %12
  %16 = load i64, ptr %7, align 8, !tbaa !19
  %17 = icmp ne i64 %16, 0
  br i1 %17, label %18, label %33

18:                                               ; preds = %15
  %19 = load i64, ptr %5, align 8, !tbaa !19
  %20 = load i64, ptr %6, align 8, !tbaa !19
  %21 = sdiv i64 9223372036854775807, %20
  %22 = icmp slt i64 %19, %21
  br i1 %22, label %23, label %33

23:                                               ; preds = %18
  %24 = getelementptr inbounds nuw %struct.AVRational, ptr %8, i32 0, i32 1
  %25 = getelementptr inbounds nuw %struct.AVRational, ptr %8, i32 0, i32 0
  %26 = load i64, ptr %6, align 8, !tbaa !19
  %27 = load i64, ptr %5, align 8, !tbaa !19
  %28 = mul nsw i64 %26, %27
  %29 = load i64, ptr %7, align 8, !tbaa !19
  %30 = call i32 @av_reduce(ptr noundef %24, ptr noundef %25, i64 noundef %28, i64 noundef %29, i64 noundef 2147483647)
  %31 = icmp ne i32 %30, 0
  br i1 %31, label %32, label %33

32:                                               ; preds = %23
  call void @llvm.memcpy.p0.p0.i64(ptr align 4 %4, ptr align 4 %8, i64 8, i1 false), !tbaa.struct !46
  store i32 1, ptr %9, align 4
  br label %36

33:                                               ; preds = %23, %18, %15, %12, %3
  %34 = getelementptr inbounds nuw %struct.AVRational, ptr %4, i32 0, i32 0
  store i32 0, ptr %34, align 4, !tbaa !47
  %35 = getelementptr inbounds nuw %struct.AVRational, ptr %4, i32 0, i32 1
  store i32 1, ptr %35, align 4, !tbaa !49
  store i32 1, ptr %9, align 4
  br label %36

36:                                               ; preds = %33, %32
  call void @llvm.lifetime.end.p0(i64 8, ptr %8) #9
  %37 = load i64, ptr %4, align 4
  ret i64 %37
}