; Function Attrs: nounwind uwtable
define i64 @ff_av1_framerate(i64 noundef %0, i64 noundef %1, i64 noundef %2) local_unnamed_addr #0 {
  %4 = alloca %struct.AVRational, align 8
  call void @llvm.lifetime.start.p0(i64 8, ptr nonnull %4) #6
  %5 = icmp ne i64 %0, 0
  %6 = icmp ne i64 %1, 0
  %or.cond = and i1 %5, %6
  %7 = icmp ne i64 %2, 0
  %or.cond3 = and i1 %or.cond, %7
  br i1 %or.cond3, label %8, label %15

8:                                                ; preds = %3
  %9 = sdiv i64 9223372036854775807, %1
  %10 = icmp slt i64 %0, %9
  br i1 %10, label %11, label %15

11:                                               ; preds = %8
  %12 = getelementptr inbounds nuw i8, ptr %4, i64 4
  %13 = mul nsw i64 %1, %0
  %14 = call i32 @av_reduce(ptr noundef nonnull %12, ptr noundef nonnull %4, i64 noundef %13, i64 noundef %2, i64 noundef 2147483647) #6
  %.not = icmp eq i32 %14, 0
  %.sroa.0.0.copyload = load i64, ptr %4, align 8
  %spec.select = select i1 %.not, i64 4294967296, i64 %.sroa.0.0.copyload
  br label %15

15:                                               ; preds = %11, %3, %8
  %.sroa.0.0.insert.insert = phi i64 [ 4294967296, %8 ], [ 4294967296, %3 ], [ %spec.select, %11 ]
  call void @llvm.lifetime.end.p0(i64 8, ptr nonnull %4) #6
  ret i64 %.sroa.0.0.insert.insert
}